target datalayout = "e-m:e-p270:32:32-p271:32:32-p272:64:64-i64:64-i128:128-f80:128-n8:16:32:64-S128"
target triple = "x86_64-pc-linux-gnu"

%struct.darktable_t = type { %struct.dt_codepath_t, i32, i32, ptr, ptr, ptr, ptr, ptr, ptr, ptr, ptr, ptr, ptr, ptr, ptr, ptr, ptr, ptr, ptr, ptr, ptr, ptr, ptr, ptr, ptr, ptr, ptr, ptr, ptr, ptr, [64 x %struct.dt_pthread_mutex_t], %struct.dt_pthread_mutex_t, %struct.dt_pthread_mutex_t, %struct.dt_pthread_mutex_t, %struct.dt_pthread_mutex_t, %struct.dt_pthread_mutex_t, ptr, ptr, ptr, ptr, ptr, ptr, ptr, ptr, ptr, ptr, ptr, ptr, ptr, %struct.dt_lua_state_t, ptr, double, ptr, i32, [47 x i32], i32, i32, ptr, ptr, %struct.dt_sys_resources_t, %struct.dt_backthumb_t, %struct.dt_gimp_t }
%struct.dt_codepath_t = type { i8, [3 x i8] }
%struct.dt_pthread_mutex_t = type { %union.pthread_mutex_t }
%union.pthread_mutex_t = type { %struct.__pthread_mutex_s }
%struct.__pthread_mutex_s = type { i32, i32, i32, i32, i32, i16, i16, %struct.__pthread_internal_list }
%struct.__pthread_internal_list = type { ptr, ptr }
%struct.dt_lua_state_t = type { i32 }
%struct.dt_sys_resources_t = type { i64, i64, ptr, ptr, i32 }
%struct.dt_backthumb_t = type { double, double, i32, i32, i32, i32 }
%struct.dt_gimp_t = type { i32, ptr, ptr, i32, i32 }
%struct.dt_control_image_enumerator_t = type { ptr, i32, ptr, i32 }

@darktable = external global %struct.darktable_t, align 8
@.str.10 = private unnamed_addr constant [14 x i8] c"delete images\00", align 1
@.str.11 = private unnamed_addr constant [14 x i8] c"send_to_trash\00", align 1
@.str.12 = private unnamed_addr constant [18 x i8] c"ask_before_delete\00", align 1
@.str.13 = private unnamed_addr constant [14 x i8] c"delete image?\00", align 1
@.str.14 = private unnamed_addr constant [15 x i8] c"delete images?\00", align 1
@.str.15 = private unnamed_addr constant [76 x i8] c"do you really want to physically delete %d image\0A(using trash if possible)?\00", align 1
@.str.16 = private unnamed_addr constant [77 x i8] c"do you really want to physically delete %d images\0A(using trash if possible)?\00", align 1
@.str.17 = private unnamed_addr constant [60 x i8] c"do you really want to physically delete %d image from disk?\00", align 1
@.str.18 = private unnamed_addr constant [61 x i8] c"do you really want to physically delete %d images from disk?\00", align 1

; Function Attrs: nounwind uwtable
define void @dt_control_delete_images() #0 {
  %1 = alloca ptr, align 8
  %2 = alloca i32, align 4
  %3 = alloca ptr, align 8
  %4 = alloca i32, align 4
  %5 = alloca i32, align 4
  call void @llvm.lifetime.start.p0(i64 8, ptr %1) #14
  %6 = call ptr @dt_control_generic_images_job_create(ptr noundef @dt_control_delete_images_job_run, ptr noundef @.str.10, i32 noundef 0, ptr noundef null, i32 noundef 1, i32 noundef 0)
  store ptr %6, ptr %1, align 8, !tbaa !51
  call void @llvm.lifetime.start.p0(i64 4, ptr %2) #14
  %7 = call i32 @dt_conf_get_bool(ptr noundef @.str.11)
  store i32 %7, ptr %2, align 4, !tbaa !50
  %8 = call i32 @dt_conf_get_bool(ptr noundef @.str.12)
  %9 = icmp ne i32 %8, 0
  br i1 %9, label %10, label %48

10:                                               ; preds = %0
  call void @llvm.lifetime.start.p0(i64 8, ptr %3) #14
  %11 = load ptr, ptr %1, align 8, !tbaa !51
  %12 = call ptr @dt_control_job_get_params(ptr noundef %11)
  store ptr %12, ptr %3, align 8, !tbaa !53
  call void @llvm.lifetime.start.p0(i64 4, ptr %4) #14
  %13 = load ptr, ptr %3, align 8, !tbaa !53
  %14 = getelementptr inbounds nuw %struct.dt_control_image_enumerator_t, ptr %13, i32 0, i32 0
  %15 = load ptr, ptr %14, align 8, !tbaa !57
  %16 = call i32 @g_list_length(ptr noundef %15)
  store i32 %16, ptr %4, align 4, !tbaa !50
  %17 = load i32, ptr %4, align 4, !tbaa !50
  %18 = icmp eq i32 %17, 0
  br i1 %18, label %19, label %21

19:                                               ; preds = %10
  %20 = load ptr, ptr %1, align 8, !tbaa !51
  call void @dt_control_job_dispose(ptr noundef %20)
  store i32 1, ptr %5, align 4
  br label %45

21:                                               ; preds = %10
  %22 = call ptr @dcgettext(ptr noundef null, ptr noundef @.str.13, i32 noundef 5) #14
  %23 = call ptr @dcgettext(ptr noundef null, ptr noundef @.str.14, i32 noundef 5) #14
  %24 = load i32, ptr %4, align 4, !tbaa !50
  %25 = sext i32 %24 to i64
  %26 = call ptr @dcngettext(ptr noundef null, ptr noundef %22, ptr noundef %23, i64 noundef %25, i32 noundef 5) #14
  %27 = load i32, ptr %2, align 4, !tbaa !50
  %28 = icmp ne i32 %27, 0
  br i1 %28, label %29, label %33

29:                                               ; preds = %21
  %30 = load i32, ptr %4, align 4, !tbaa !50
  %31 = sext i32 %30 to i64
  %32 = call ptr @dcngettext(ptr noundef null, ptr noundef @.str.15, ptr noundef @.str.16, i64 noundef %31, i32 noundef 5) #14
  br label %37

33:                                               ; preds = %21
  %34 = load i32, ptr %4, align 4, !tbaa !50
  %35 = sext i32 %34 to i64
  %36 = call ptr @dcngettext(ptr noundef null, ptr noundef @.str.17, ptr noundef @.str.18, i64 noundef %35, i32 noundef 5) #14
  br label %37

37:                                               ; preds = %33, %29
  %38 = phi ptr [ %32, %29 ], [ %36, %33 ]
  %39 = load i32, ptr %4, align 4, !tbaa !50
  %40 = call i32 (ptr, ptr, ...) @dt_gui_show_yes_no_dialog(ptr noundef %26, ptr noundef %38, i32 noundef %39)
  %41 = icmp ne i32 %40, 0
  br i1 %41, label %44, label %42

42:                                               ; preds = %37
  %43 = load ptr, ptr %1, align 8, !tbaa !51
  call void @dt_control_job_dispose(ptr noundef %43)
  store i32 1, ptr %5, align 4
  br label %45

44:                                               ; preds = %37
  store i32 0, ptr %5, align 4
  br label %45

45:                                               ; preds = %44, %42, %19
  call void @llvm.lifetime.end.p0(i64 4, ptr %4) #14
  call void @llvm.lifetime.end.p0(i64 8, ptr %3) #14
  %46 = load i32, ptr %5, align 4
  switch i32 %46, label %52 [
    i32 0, label %47
  ]

47:                                               ; preds = %45
  br label %48

48:                                               ; preds = %47, %0
  %49 = load ptr, ptr getelementptr inbounds nuw (%struct.darktable_t, ptr @darktable, i32 0, i32 12), align 8, !tbaa !10
  %50 = load ptr, ptr %1, align 8, !tbaa !51
  %51 = call i32 @dt_control_add_job(ptr noundef %49, i32 noundef 0, ptr noundef %50)
  store i32 0, ptr %5, align 4
  br label %52

52:                                               ; preds = %48, %45
  call void @llvm.lifetime.end.p0(i64 4, ptr %2) #14
  call void @llvm.lifetime.end.p0(i64 8, ptr %1) #14
  %53 = load i32, ptr %5, align 4
  switch i32 %53, label %55 [
    i32 0, label %54
    i32 1, label %54
  ]

54:                                               ; preds = %52, %52
  ret void

55:                                               ; preds = %52
  unreachable
}