; Function Attrs: nounwind uwtable
define void @dt_control_delete_images() local_unnamed_addr #0 {
  %1 = tail call fastcc ptr @dt_control_generic_images_job_create(ptr noundef nonnull @dt_control_delete_images_job_run, ptr noundef nonnull @.str.10, i32 noundef 0, ptr noundef null, i32 noundef 1, i32 noundef 0)
  %2 = tail call i32 @dt_conf_get_bool(ptr noundef nonnull @.str.11) #17
  %3 = tail call i32 @dt_conf_get_bool(ptr noundef nonnull @.str.12) #17
  %.not = icmp eq i32 %3, 0
  br i1 %.not, label %23, label %4

4:                                                ; preds = %0
  %5 = tail call ptr @dt_control_job_get_params(ptr noundef %1) #17
  %6 = load ptr, ptr %5, align 8, !tbaa !50
  %7 = tail call i32 @g_list_length(ptr noundef %6) #17
  %8 = icmp eq i32 %7, 0
  br i1 %8, label %9, label %10

9:                                                ; preds = %4
  tail call void @dt_control_job_dispose(ptr noundef %1) #17
  br label %.critedge

10:                                               ; preds = %4
  %11 = tail call ptr @dcgettext(ptr noundef null, ptr noundef nonnull @.str.13, i32 noundef 5) #17
  %12 = tail call ptr @dcgettext(ptr noundef null, ptr noundef nonnull @.str.14, i32 noundef 5) #17
  %13 = sext i32 %7 to i64
  %14 = tail call ptr @dcngettext(ptr noundef null, ptr noundef %11, ptr noundef %12, i64 noundef %13, i32 noundef 5) #17
  %.not12 = icmp eq i32 %2, 0
  br i1 %.not12, label %17, label %15

15:                                               ; preds = %10
  %16 = tail call ptr @dcngettext(ptr noundef null, ptr noundef nonnull @.str.15, ptr noundef nonnull @.str.16, i64 noundef %13, i32 noundef 5) #17
  br label %19

17:                                               ; preds = %10
  %18 = tail call ptr @dcngettext(ptr noundef null, ptr noundef nonnull @.str.17, ptr noundef nonnull @.str.18, i64 noundef %13, i32 noundef 5) #17
  br label %19

19:                                               ; preds = %17, %15
  %20 = phi ptr [ %16, %15 ], [ %18, %17 ]
  %21 = tail call i32 (ptr, ptr, ...) @dt_gui_show_yes_no_dialog(ptr noundef %14, ptr noundef %20, i32 noundef %7) #17
  %.not13 = icmp eq i32 %21, 0
  br i1 %.not13, label %22, label %23

22:                                               ; preds = %19
  tail call void @dt_control_job_dispose(ptr noundef %1) #17
  br label %.critedge

23:                                               ; preds = %19, %0
  %24 = load ptr, ptr getelementptr inbounds nuw (i8, ptr @darktable, i64 88), align 8, !tbaa !6
  %25 = tail call i32 @dt_control_add_job(ptr noundef %24, i32 noundef 0, ptr noundef %1) #17
  br label %.critedge

.critedge:                                        ; preds = %9, %22, %23
  ret void
}